; Function Attrs: mustprogress uwtable
define void @_ZN2cv6detail17BlocksCompensator11setMatGainsERSt6vectorINS_3MatESaIS3_EE(ptr noundef nonnull align 8 dereferenceable(64) %0, ptr noundef nonnull readonly align 8 captures(none) dereferenceable(24) %1) unnamed_addr #3 align 2 personality ptr @__gxx_personality_v0 {
  %3 = alloca %"class.cv::UMat", align 8
  %4 = alloca %"class.cv::_OutputArray", align 8
  %5 = getelementptr inbounds nuw i8, ptr %1, i64 8
  %6 = load ptr, ptr %5, align 8, !tbaa !178
  %7 = load ptr, ptr %1, align 8, !tbaa !175
  %8 = ptrtoint ptr %6 to i64
  %9 = ptrtoint ptr %7 to i64
  %10 = sub i64 %8, %9
  %11 = sdiv exact i64 %10, 96
  %12 = trunc i64 %11 to i32
  %13 = icmp sgt i32 %12, 0
  br i1 %13, label %.lr.ph, label %._crit_edge

.lr.ph:                                           ; preds = %2
  %14 = getelementptr inbounds nuw i8, ptr %4, i64 8
  %15 = getelementptr inbounds nuw i8, ptr %4, i64 16
  %16 = getelementptr inbounds nuw i8, ptr %0, i64 32
  %17 = getelementptr inbounds nuw i8, ptr %0, i64 40
  %18 = getelementptr inbounds nuw i8, ptr %0, i64 24
  br label %19

._crit_edge:                                      ; preds = %_ZNSt6vectorIN2cv4UMatESaIS1_EE9push_backERKS1_.exit, %2
  ret void

19:                                               ; preds = %.lr.ph, %_ZNSt6vectorIN2cv4UMatESaIS1_EE9push_backERKS1_.exit
  %indvars.iv = phi i64 [ 0, %.lr.ph ], [ %indvars.iv.next, %_ZNSt6vectorIN2cv4UMatESaIS1_EE9push_backERKS1_.exit ]
  call void @llvm.lifetime.start.p0(i64 80, ptr nonnull %3) #25
  call void @_ZN2cv4UMatC1ENS_14UMatUsageFlagsE(ptr noundef nonnull align 8 dereferenceable(80) %3, i32 noundef 0) #25
  %20 = load ptr, ptr %1, align 8, !tbaa !175
  %21 = getelementptr inbounds nuw %"class.cv::Mat", ptr %20, i64 %indvars.iv
  call void @llvm.lifetime.start.p0(i64 24, ptr nonnull %4) #25
  store i64 0, ptr %15, align 8
  store i32 34209792, ptr %4, align 8, !tbaa !107
  store ptr %3, ptr %14, align 8, !tbaa !110
  invoke void @_ZNK2cv3Mat6copyToERKNS_12_OutputArrayE(ptr noundef nonnull align 8 dereferenceable(96) %21, ptr noundef nonnull align 8 dereferenceable(24) %4)
          to label %22 unwind label %37

22:                                               ; preds = %19
  call void @llvm.lifetime.end.p0(i64 24, ptr nonnull %4) #25
  %23 = load ptr, ptr %16, align 8, !tbaa !87
  %24 = load ptr, ptr %17, align 8, !tbaa !129
  %.not.i = icmp eq ptr %23, %24
  br i1 %.not.i, label %28, label %25

25:                                               ; preds = %22
  invoke void @_ZN2cv4UMatC1ERKS0_(ptr noundef nonnull align 8 dereferenceable(80) %23, ptr noundef nonnull align 8 dereferenceable(80) %3)
          to label %.noexc unwind label %39

.noexc:                                           ; preds = %25
  %26 = load ptr, ptr %16, align 8, !tbaa !87
  %27 = getelementptr inbounds nuw i8, ptr %26, i64 80
  store ptr %27, ptr %16, align 8, !tbaa !87
  br label %_ZNSt6vectorIN2cv4UMatESaIS1_EE9push_backERKS1_.exit

28:                                               ; preds = %22
  invoke void @_ZNSt6vectorIN2cv4UMatESaIS1_EE17_M_realloc_insertIJRKS1_EEEvN9__gnu_cxx17__normal_iteratorIPS1_S3_EEDpOT_(ptr noundef nonnull align 8 dereferenceable(24) %18, ptr %23, ptr noundef nonnull align 8 dereferenceable(80) %3)
          to label %_ZNSt6vectorIN2cv4UMatESaIS1_EE9push_backERKS1_.exit unwind label %39

_ZNSt6vectorIN2cv4UMatESaIS1_EE9push_backERKS1_.exit: ; preds = %.noexc, %28
  call void @_ZN2cv4UMatD1Ev(ptr noundef nonnull align 8 dereferenceable(80) %3) #25
  call void @llvm.lifetime.end.p0(i64 80, ptr nonnull %3) #25
  %indvars.iv.next = add nuw nsw i64 %indvars.iv, 1
  %29 = load ptr, ptr %5, align 8, !tbaa !178
  %30 = load ptr, ptr %1, align 8, !tbaa !175
  %31 = ptrtoint ptr %29 to i64
  %32 = ptrtoint ptr %30 to i64
  %33 = sub i64 %31, %32
  %34 = sdiv exact i64 %33, 96
  %sext = shl i64 %34, 32
  %35 = ashr exact i64 %sext, 32
  %36 = icmp slt i64 %indvars.iv.next, %35
  br i1 %36, label %19, label %._crit_edge, !llvm.loop !249

37:                                               ; preds = %19
  %38 = landingpad { ptr, i32 }
          cleanup
  call void @llvm.lifetime.end.p0(i64 24, ptr nonnull %4) #25
  br label %41

39:                                               ; preds = %28, %25
  %40 = landingpad { ptr, i32 }
          cleanup
  br label %41

41:                                               ; preds = %39, %37
  %.pn11 = phi { ptr, i32 } [ %40, %39 ], [ %38, %37 ]
  call void @_ZN2cv4UMatD1Ev(ptr noundef nonnull align 8 dereferenceable(80) %3) #25
  call void @llvm.lifetime.end.p0(i64 80, ptr nonnull %3) #25
  resume { ptr, i32 } %.pn11
}